target datalayout = "e-m:e-p270:32:32-p271:32:32-p272:64:64-i64:64-i128:128-f80:128-n8:16:32:64-S128"
target triple = "x86_64-unknown-linux-gnu"

%"class.icu_75::CharsetDetector" = type { ptr, ptr, i32, i8, i8, ptr }
%"struct.icu_75::CSRecognizerInfo" = type <{ ptr, i8, [7 x i8] }>

@_ZL19fCSRecognizers_size = internal global i32 0, align 4
@_ZL14fCSRecognizers = internal global ptr null, align 8

; Function Attrs: mustprogress uwtable
define noundef ptr @_ZN6icu_7515CharsetDetector9detectAllERiR10UErrorCode(ptr noundef nonnull align 8 dereferenceable(32) %this, ptr noundef nonnull align 4 dereferenceable(4) %maxMatchesFound, ptr noundef nonnull align 4 dereferenceable(4) %status) #0 align 2 {
entry:
  %retval = alloca ptr, align 8
  %this.addr = alloca ptr, align 8
  %maxMatchesFound.addr = alloca ptr, align 8
  %status.addr = alloca ptr, align 8
  %csr = alloca ptr, align 8
  %i = alloca i32, align 4
  store ptr %this, ptr %this.addr, align 8
  store ptr %maxMatchesFound, ptr %maxMatchesFound.addr, align 8
  store ptr %status, ptr %status.addr, align 8
  %this1 = load ptr, ptr %this.addr, align 8
  %textIn = getelementptr inbounds %"class.icu_75::CharsetDetector", ptr %this1, i32 0, i32 0
  %0 = load ptr, ptr %textIn, align 8
  %call = call noundef signext i8 @_ZNK6icu_759InputText5isSetEv(ptr noundef nonnull align 8 dereferenceable(52) %0)
  %tobool = icmp ne i8 %call, 0
  br i1 %tobool, label %if.else, label %if.then

if.then:                                          ; preds = %entry
  %1 = load ptr, ptr %status.addr, align 8
  store i32 2, ptr %1, align 4
  store ptr null, ptr %retval, align 8
  br label %return

if.else:                                          ; preds = %entry
  %fFreshTextSet = getelementptr inbounds %"class.icu_75::CharsetDetector", ptr %this1, i32 0, i32 4
  %2 = load i8, ptr %fFreshTextSet, align 1
  %tobool2 = icmp ne i8 %2, 0
  br i1 %tobool2, label %if.then3, label %if.end20

if.then3:                                         ; preds = %if.else
  %textIn4 = getelementptr inbounds %"class.icu_75::CharsetDetector", ptr %this1, i32 0, i32 0
  %3 = load ptr, ptr %textIn4, align 8
  %fStripTags = getelementptr inbounds %"class.icu_75::CharsetDetector", ptr %this1, i32 0, i32 3
  %4 = load i8, ptr %fStripTags, align 4
  call void @_ZN6icu_759InputText10MungeInputEa(ptr noundef nonnull align 8 dereferenceable(52) %3, i8 noundef signext %4)
  %resultCount = getelementptr inbounds %"class.icu_75::CharsetDetector", ptr %this1, i32 0, i32 2
  store i32 0, ptr %resultCount, align 8
  store i32 0, ptr %i, align 4
  br label %for.cond

for.cond:                                         ; preds = %for.inc, %if.then3
  %5 = load i32, ptr %i, align 4
  %6 = load i32, ptr @_ZL19fCSRecognizers_size, align 4
  %cmp = icmp slt i32 %5, %6
  br i1 %cmp, label %for.body, label %for.end

for.body:                                         ; preds = %for.cond
  %7 = load ptr, ptr @_ZL14fCSRecognizers, align 8
  %8 = load i32, ptr %i, align 4
  %idxprom = sext i32 %8 to i64
  %arrayidx = getelementptr inbounds ptr, ptr %7, i64 %idxprom
  %9 = load ptr, ptr %arrayidx, align 8
  %recognizer = getelementptr inbounds %"struct.icu_75::CSRecognizerInfo", ptr %9, i32 0, i32 0
  %10 = load ptr, ptr %recognizer, align 8
  store ptr %10, ptr %csr, align 8
  %11 = load ptr, ptr %csr, align 8
  %textIn5 = getelementptr inbounds %"class.icu_75::CharsetDetector", ptr %this1, i32 0, i32 0
  %12 = load ptr, ptr %textIn5, align 8
  %resultArray = getelementptr inbounds %"class.icu_75::CharsetDetector", ptr %this1, i32 0, i32 1
  %13 = load ptr, ptr %resultArray, align 8
  %resultCount6 = getelementptr inbounds %"class.icu_75::CharsetDetector", ptr %this1, i32 0, i32 2
  %14 = load i32, ptr %resultCount6, align 8
  %idxprom7 = sext i32 %14 to i64
  %arrayidx8 = getelementptr inbounds ptr, ptr %13, i64 %idxprom7
  %15 = load ptr, ptr %arrayidx8, align 8
  %vtable = load ptr, ptr %11, align 8
  %vfn = getelementptr inbounds ptr, ptr %vtable, i64 2
  %16 = load ptr, ptr %vfn, align 8
  %call9 = call noundef signext i8 %16(ptr noundef nonnull align 8 dereferenceable(8) %11, ptr noundef %12, ptr noundef %15)
  %tobool10 = icmp ne i8 %call9, 0
  br i1 %tobool10, label %if.then11, label %if.end

if.then11:                                        ; preds = %for.body
  %resultCount12 = getelementptr inbounds %"class.icu_75::CharsetDetector", ptr %this1, i32 0, i32 2
  %17 = load i32, ptr %resultCount12, align 8
  %inc = add nsw i32 %17, 1
  store i32 %inc, ptr %resultCount12, align 8
  br label %if.end

if.end:                                           ; preds = %if.then11, %for.body
  br label %for.inc

for.inc:                                          ; preds = %if.end
  %18 = load i32, ptr %i, align 4
  %add = add nsw i32 %18, 1
  store i32 %add, ptr %i, align 4
  br label %for.cond, !llvm.loop !8

for.end:                                          ; preds = %for.cond
  %resultCount13 = getelementptr inbounds %"class.icu_75::CharsetDetector", ptr %this1, i32 0, i32 2
  %19 = load i32, ptr %resultCount13, align 8
  %cmp14 = icmp sgt i32 %19, 1
  br i1 %cmp14, label %if.then15, label %if.end18

if.then15:                                        ; preds = %for.end
  %resultArray16 = getelementptr inbounds %"class.icu_75::CharsetDetector", ptr %this1, i32 0, i32 1
  %20 = load ptr, ptr %resultArray16, align 8
  %resultCount17 = getelementptr inbounds %"class.icu_75::CharsetDetector", ptr %this1, i32 0, i32 2
  %21 = load i32, ptr %resultCount17, align 8
  %22 = load ptr, ptr %status.addr, align 8
  call void @uprv_sortArray_75(ptr noundef %20, i32 noundef %21, i32 noundef 8, ptr noundef @_ZL22charsetMatchComparatorPKvS0_S0_, ptr noundef null, i8 noundef signext 1, ptr noundef %22)
  br label %if.end18

if.end18:                                         ; preds = %if.then15, %for.end
  %fFreshTextSet19 = getelementptr inbounds %"class.icu_75::CharsetDetector", ptr %this1, i32 0, i32 4
  store i8 0, ptr %fFreshTextSet19, align 1
  br label %if.end20

if.end20:                                         ; preds = %if.end18, %if.else
  br label %if.end21

if.end21:                                         ; preds = %if.end20
  %resultCount22 = getelementptr inbounds %"class.icu_75::CharsetDetector", ptr %this1, i32 0, i32 2
  %23 = load i32, ptr %resultCount22, align 8
  %24 = load ptr, ptr %maxMatchesFound.addr, align 8
  store i32 %23, ptr %24, align 4
  %25 = load ptr, ptr %maxMatchesFound.addr, align 8
  %26 = load i32, ptr %25, align 4
  %cmp23 = icmp eq i32 %26, 0
  br i1 %cmp23, label %if.then24, label %if.end25

if.then24:                                        ; preds = %if.end21
  %27 = load ptr, ptr %status.addr, align 8
  store i32 10, ptr %27, align 4
  store ptr null, ptr %retval, align 8
  br label %return

if.end25:                                         ; preds = %if.end21
  %resultArray26 = getelementptr inbounds %"class.icu_75::CharsetDetector", ptr %this1, i32 0, i32 1
  %28 = load ptr, ptr %resultArray26, align 8
  store ptr %28, ptr %retval, align 8
  br label %return

return:                                           ; preds = %if.end25, %if.then24, %if.then
  %29 = load ptr, ptr %retval, align 8
  ret ptr %29
}