; Function Attrs: mustprogress uwtable
define noundef ptr @_ZN6icu_7515CharsetDetector9detectAllERiR10UErrorCode(ptr nocapture noundef nonnull align 8 dereferenceable(32) %this, ptr nocapture noundef nonnull writeonly align 4 dereferenceable(4) %maxMatchesFound, ptr noundef nonnull align 4 dereferenceable(4) %status) local_unnamed_addr #0 align 2 {
entry:
  %0 = load ptr, ptr %this, align 8
  %call = tail call noundef signext i8 @_ZNK6icu_759InputText5isSetEv(ptr noundef nonnull align 8 dereferenceable(52) %0)
  %tobool.not = icmp eq i8 %call, 0
  br i1 %tobool.not, label %if.then, label %if.else

if.then:                                          ; preds = %entry
  store i32 2, ptr %status, align 4
  br label %return

if.else:                                          ; preds = %entry
  %fFreshTextSet = getelementptr inbounds i8, ptr %this, i64 21
  %1 = load i8, ptr %fFreshTextSet, align 1
  %tobool2.not = icmp eq i8 %1, 0
  br i1 %tobool2.not, label %if.end21, label %if.then3

if.then3:                                         ; preds = %if.else
  %2 = load ptr, ptr %this, align 8
  %fStripTags = getelementptr inbounds i8, ptr %this, i64 20
  %3 = load i8, ptr %fStripTags, align 4
  tail call void @_ZN6icu_759InputText10MungeInputEa(ptr noundef nonnull align 8 dereferenceable(52) %2, i8 noundef signext %3)
  %resultCount = getelementptr inbounds i8, ptr %this, i64 16
  store i32 0, ptr %resultCount, align 8
  %.b7 = load i1, ptr @_ZL19fCSRecognizers_size, align 4
  br i1 %.b7, label %for.body.lr.ph, label %if.end18

for.body.lr.ph:                                   ; preds = %if.then3
  %resultArray = getelementptr inbounds i8, ptr %this, i64 8
  br label %for.body

for.body:                                         ; preds = %for.body.lr.ph, %for.inc
  %indvars.iv = phi i64 [ 0, %for.body.lr.ph ], [ %indvars.iv.next, %for.inc ]
  %4 = load ptr, ptr @_ZL14fCSRecognizers, align 8
  %arrayidx = getelementptr inbounds ptr, ptr %4, i64 %indvars.iv
  %5 = load ptr, ptr %arrayidx, align 8
  %6 = load ptr, ptr %5, align 8
  %7 = load ptr, ptr %this, align 8
  %8 = load ptr, ptr %resultArray, align 8
  %9 = load i32, ptr %resultCount, align 8
  %idxprom7 = sext i32 %9 to i64
  %arrayidx8 = getelementptr inbounds ptr, ptr %8, i64 %idxprom7
  %10 = load ptr, ptr %arrayidx8, align 8
  %vtable = load ptr, ptr %6, align 8
  %vfn = getelementptr inbounds i8, ptr %vtable, i64 16
  %11 = load ptr, ptr %vfn, align 8
  %call9 = tail call noundef signext i8 %11(ptr noundef nonnull align 8 dereferenceable(8) %6, ptr noundef %7, ptr noundef %10)
  %tobool10.not = icmp eq i8 %call9, 0
  br i1 %tobool10.not, label %for.inc, label %if.then11

if.then11:                                        ; preds = %for.body
  %12 = load i32, ptr %resultCount, align 8
  %inc = add nsw i32 %12, 1
  store i32 %inc, ptr %resultCount, align 8
  br label %for.inc

for.inc:                                          ; preds = %for.body, %if.then11
  %indvars.iv.next = add nuw nsw i64 %indvars.iv, 1
  %.b = load i1, ptr @_ZL19fCSRecognizers_size, align 4
  %cmp6 = icmp ult i64 %indvars.iv, 27
  %cmp = and i1 %.b, %cmp6
  br i1 %cmp, label %for.body, label %for.end, !llvm.loop !8

for.end:                                          ; preds = %for.inc
  %.pre = load i32, ptr %resultCount, align 8
  %cmp14 = icmp sgt i32 %.pre, 1
  br i1 %cmp14, label %if.then15, label %if.end18

if.then15:                                        ; preds = %for.end
  %resultArray16 = getelementptr inbounds i8, ptr %this, i64 8
  %13 = load ptr, ptr %resultArray16, align 8
  tail call void @uprv_sortArray_75(ptr noundef %13, i32 noundef %.pre, i32 noundef 8, ptr noundef nonnull @_ZL22charsetMatchComparatorPKvS0_S0_, ptr noundef null, i8 noundef signext 1, ptr noundef nonnull %status)
  br label %if.end18

if.end18:                                         ; preds = %if.then3, %if.then15, %for.end
  store i8 0, ptr %fFreshTextSet, align 1
  br label %if.end21

if.end21:                                         ; preds = %if.else, %if.end18
  %resultCount22 = getelementptr inbounds i8, ptr %this, i64 16
  %14 = load i32, ptr %resultCount22, align 8
  store i32 %14, ptr %maxMatchesFound, align 4
  %cmp23 = icmp eq i32 %14, 0
  br i1 %cmp23, label %if.then24, label %if.end25

if.then24:                                        ; preds = %if.end21
  store i32 10, ptr %status, align 4
  br label %return

if.end25:                                         ; preds = %if.end21
  %resultArray26 = getelementptr inbounds i8, ptr %this, i64 8
  %15 = load ptr, ptr %resultArray26, align 8
  br label %return

return:                                           ; preds = %if.end25, %if.then24, %if.then
  %retval.0 = phi ptr [ null, %if.then24 ], [ %15, %if.end25 ], [ null, %if.then ]
  ret ptr %retval.0
}